(lp0
cnumpy.core.multiarray
scalar
p1
(cnumpy
dtype
p2
(S'f4'
p3
I0
I1
tp4
Rp5
(I3
S'<'
p6
NNNI-1
I-1
I0
tp7
bS'\x8b\xbem@'
p8
tp9
Rp10
ag1
(g5
S'\xf54m@'
p11
tp12
Rp13
ag1
(g5
S'\x0e\xabl@'
p14
tp15
Rp16
ag1
(g5
S'\xc5\x1dl@'
p17
tp18
Rp19
ag1
(g5
S'\xe8\x89k@'
p20
tp21
Rp22
ag1
(g5
S'\x1d\xecj@'
p23
tp24
Rp25
ag1
(g5
S'\xe9@j@'
p26
tp27
Rp28
ag1
(g5
S'x\x84i@'
p29
tp30
Rp31
ag1
(g5
S'k\xb2h@'
p32
tp33
Rp34
ag1
(g5
S'\xa7\xc5g@'
p35
tp36
Rp37
a.